target datalayout = "e-m:e-p270:32:32-p271:32:32-p272:64:64-i64:64-i128:128-f80:128-n8:16:32:64-S128"
target triple = "x86_64-pc-linux-gnu"

%struct.ScanEnv = type { i32, i32, ptr, ptr, i32, i32, i32, i32, ptr, ptr, ptr, ptr, ptr, ptr, i32, i32, i32, i32, [8 x ptr], ptr, i32, i32, ptr, i32 }
%struct.__va_list_tag = type { i32, i32, ptr, ptr }

@.str.4 = private unnamed_addr constant [3 x i8] c"%s\00", align 1

; Function Attrs: nounwind sspstrong uwtable
define internal void @onig_syntax_warn(ptr noundef %0, ptr noundef %1, ...) #0 {
  %3 = alloca ptr, align 8
  %4 = alloca ptr, align 8
  %5 = alloca [1 x %struct.__va_list_tag], align 16
  %6 = alloca [256 x i8], align 16
  store ptr %0, ptr %3, align 8, !tbaa !12
  store ptr %1, ptr %4, align 8, !tbaa !7
  call void @llvm.lifetime.start.p0(i64 24, ptr %5) #13
  call void @llvm.lifetime.start.p0(i64 256, ptr %6) #13
  %7 = getelementptr inbounds [1 x %struct.__va_list_tag], ptr %5, i64 0, i64 0
  call void @llvm.va_start.p0(ptr %7)
  %8 = getelementptr inbounds [256 x i8], ptr %6, i64 0, i64 0
  %9 = load ptr, ptr %3, align 8, !tbaa !12
  %10 = getelementptr inbounds nuw %struct.ScanEnv, ptr %9, i32 0, i32 2
  %11 = load ptr, ptr %10, align 8, !tbaa !98
  %12 = load ptr, ptr %3, align 8, !tbaa !12
  %13 = getelementptr inbounds nuw %struct.ScanEnv, ptr %12, i32 0, i32 8
  %14 = load ptr, ptr %13, align 8, !tbaa !100
  %15 = load ptr, ptr %3, align 8, !tbaa !12
  %16 = getelementptr inbounds nuw %struct.ScanEnv, ptr %15, i32 0, i32 9
  %17 = load ptr, ptr %16, align 8, !tbaa !101
  %18 = load ptr, ptr %4, align 8, !tbaa !7
  %19 = getelementptr inbounds [1 x %struct.__va_list_tag], ptr %5, i64 0, i64 0
  call void @onig_vsnprintf_with_pattern(ptr noundef %8, i32 noundef 256, ptr noundef %11, ptr noundef %14, ptr noundef %17, ptr noundef %18, ptr noundef %19)
  %20 = getelementptr inbounds [1 x %struct.__va_list_tag], ptr %5, i64 0, i64 0
  call void @llvm.va_end.p0(ptr %20)
  %21 = load ptr, ptr %3, align 8, !tbaa !12
  %22 = getelementptr inbounds nuw %struct.ScanEnv, ptr %21, i32 0, i32 22
  %23 = load ptr, ptr %22, align 8, !tbaa !137
  %24 = icmp eq ptr %23, null
  br i1 %24, label %25, label %27

25:                                               ; preds = %2
  %26 = getelementptr inbounds [256 x i8], ptr %6, i64 0, i64 0
  call void (ptr, ...) @rb_warn(ptr noundef @.str.4, ptr noundef %26) #16
  br label %35

27:                                               ; preds = %2
  %28 = load ptr, ptr %3, align 8, !tbaa !12
  %29 = getelementptr inbounds nuw %struct.ScanEnv, ptr %28, i32 0, i32 22
  %30 = load ptr, ptr %29, align 8, !tbaa !137
  %31 = load ptr, ptr %3, align 8, !tbaa !12
  %32 = getelementptr inbounds nuw %struct.ScanEnv, ptr %31, i32 0, i32 23
  %33 = load i32, ptr %32, align 8, !tbaa !138
  %34 = getelementptr inbounds [256 x i8], ptr %6, i64 0, i64 0
  call void (ptr, i32, ptr, ...) @rb_compile_warn(ptr noundef %30, i32 noundef %33, ptr noundef @.str.4, ptr noundef %34)
  br label %35

35:                                               ; preds = %27, %25
  call void @llvm.lifetime.end.p0(i64 256, ptr %6) #13
  call void @llvm.lifetime.end.p0(i64 24, ptr %5) #13
  ret void
}