; Function Attrs: nounwind sspstrong uwtable
define internal void @onig_syntax_warn(ptr noundef readonly captures(none) %0, ptr noundef %1, ...) unnamed_addr #5 {
  %3 = alloca [1 x %struct.__va_list_tag], align 16
  %4 = alloca [256 x i8], align 16
  call void @llvm.lifetime.start.p0(i64 24, ptr nonnull %3) #25
  call void @llvm.lifetime.start.p0(i64 256, ptr nonnull %4) #25
  call void @llvm.va_start.p0(ptr nonnull %3)
  %5 = getelementptr inbounds nuw i8, ptr %0, i64 8
  %6 = load ptr, ptr %5, align 8, !tbaa !84
  %7 = getelementptr inbounds nuw i8, ptr %0, i64 40
  %8 = load ptr, ptr %7, align 8, !tbaa !86
  %9 = getelementptr inbounds nuw i8, ptr %0, i64 48
  %10 = load ptr, ptr %9, align 8, !tbaa !87
  call void @onig_vsnprintf_with_pattern(ptr noundef nonnull %4, i32 noundef 256, ptr noundef %6, ptr noundef %8, ptr noundef %10, ptr noundef %1, ptr noundef nonnull %3) #25
  call void @llvm.va_end.p0(ptr nonnull %3)
  %11 = getelementptr inbounds nuw i8, ptr %0, i64 184
  %12 = load ptr, ptr %11, align 8, !tbaa !116
  %13 = icmp eq ptr %12, null
  br i1 %13, label %14, label %15

14:                                               ; preds = %2
  call void (ptr, ...) @rb_warn(ptr noundef nonnull @.str.4, ptr noundef nonnull %4) #28
  br label %18

15:                                               ; preds = %2
  %16 = getelementptr inbounds nuw i8, ptr %0, i64 192
  %17 = load i32, ptr %16, align 8, !tbaa !117
  call void (ptr, i32, ptr, ...) @rb_compile_warn(ptr noundef nonnull %12, i32 noundef %17, ptr noundef nonnull @.str.4, ptr noundef nonnull %4) #25
  br label %18

18:                                               ; preds = %15, %14
  call void @llvm.lifetime.end.p0(i64 256, ptr nonnull %4) #25
  call void @llvm.lifetime.end.p0(i64 24, ptr nonnull %3) #25
  ret void
}